; Function Attrs: mustprogress nounwind uwtable
define hidden void @_ZN17AbstractAssembler5flushEv(ptr nocapture noundef nonnull readonly align 8 dereferenceable(24) %0) local_unnamed_addr #0 align 2 {
  %2 = getelementptr inbounds i8, ptr %0, i64 8
  %3 = load ptr, ptr %2, align 8
  %4 = load ptr, ptr %3, align 8
  %5 = getelementptr inbounds i8, ptr %3, i64 16
  %6 = load ptr, ptr %5, align 8
  %7 = ptrtoint ptr %6 to i64
  %8 = ptrtoint ptr %4 to i64
  %9 = sub i64 %7, %8
  %10 = trunc i64 %9 to i32
  tail call void @_ZN14AbstractICache16invalidate_rangeEPhi(ptr noundef %4, i32 noundef %10) #10
  ret void
}